; Function Attrs: nounwind uwtable
define ptr @l_Array_forIn_x27Unsafe_loop___at_Lean_Server_combineIdents_useConstRepresentatives___spec__23(i64 noundef %0, ptr noundef %1, ptr readnone captures(none) %2, ptr readnone captures(none) %3, ptr noundef readonly captures(none) %4, i64 noundef %5, i64 noundef %6, ptr noundef %7) local_unnamed_addr #0 {
  %.not45 = icmp ult i64 %6, %5
  br i1 %.not45, label %.lr.ph, label %.._crit_edge_crit_edge

.._crit_edge_crit_edge:                           ; preds = %8
  %.pre = ptrtoint ptr %1 to i64
  %.pre48 = and i64 %.pre, 1
  br label %._crit_edge

.lr.ph:                                           ; preds = %8
  %9 = getelementptr inbounds nuw i8, ptr %4, i64 24
  %10 = ptrtoint ptr %1 to i64
  %11 = and i64 %10, 1
  %.not41 = icmp eq i64 %11, 0
  br label %19

._crit_edge:                                      ; preds = %lean_dec.exit26, %.._crit_edge_crit_edge
  %.pre-phi49 = phi i64 [ %.pre48, %.._crit_edge_crit_edge ], [ %11, %lean_dec.exit26 ]
  %.022.lcssa = phi ptr [ %7, %.._crit_edge_crit_edge ], [ %38, %lean_dec.exit26 ]
  %.not44 = icmp eq i64 %.pre-phi49, 0
  br i1 %.not44, label %12, label %57

12:                                               ; preds = %._crit_edge
  %13 = load i32, ptr %1, align 4, !tbaa !8
  %14 = icmp sgt i32 %13, 1
  br i1 %14, label %15, label %17, !prof !11

15:                                               ; preds = %12
  %16 = add nsw i32 %13, -1
  store i32 %16, ptr %1, align 4, !tbaa !8
  br label %57

17:                                               ; preds = %12
  %.not.i = icmp eq i32 %13, 0
  br i1 %.not.i, label %57, label %18

18:                                               ; preds = %17
  tail call void @lean_dec_ref_cold(ptr noundef nonnull %1) #8
  br label %57

19:                                               ; preds = %.lr.ph, %lean_dec.exit26
  %.02047 = phi i64 [ %6, %.lr.ph ], [ %56, %lean_dec.exit26 ]
  %.02246 = phi ptr [ %7, %.lr.ph ], [ %38, %lean_dec.exit26 ]
  %20 = getelementptr inbounds nuw [0 x ptr], ptr %9, i64 0, i64 %.02047
  %21 = load ptr, ptr %20, align 8, !tbaa !4
  %22 = ptrtoint ptr %21 to i64
  %23 = and i64 %22, 1
  %.not.i29 = icmp eq i64 %23, 0
  br i1 %.not.i29, label %24, label %lean_array_uget.exit

24:                                               ; preds = %19
  %.val.i.i = load i32, ptr %21, align 4, !tbaa !8
  %25 = icmp sgt i32 %.val.i.i, 0
  br i1 %25, label %26, label %28, !prof !11

26:                                               ; preds = %24
  %27 = add nuw i32 %.val.i.i, 1
  store i32 %27, ptr %21, align 4, !tbaa !8
  br label %lean_array_uget.exit

28:                                               ; preds = %24
  %.not.i.i = icmp eq i32 %.val.i.i, 0
  br i1 %.not.i.i, label %lean_array_uget.exit, label %29

29:                                               ; preds = %28
  tail call void @lean_inc_ref_cold(ptr noundef nonnull %21) #8
  br label %lean_array_uget.exit

lean_array_uget.exit:                             ; preds = %19, %26, %28, %29
  br i1 %.not41, label %30, label %lean_inc.exit25

30:                                               ; preds = %lean_array_uget.exit
  %.val.i = load i32, ptr %1, align 4, !tbaa !8
  %31 = icmp sgt i32 %.val.i, 0
  br i1 %31, label %32, label %34, !prof !11

32:                                               ; preds = %30
  %33 = add nuw i32 %.val.i, 1
  store i32 %33, ptr %1, align 4, !tbaa !8
  br label %lean_inc.exit25

34:                                               ; preds = %30
  %.not.i30 = icmp eq i32 %.val.i, 0
  br i1 %.not.i30, label %lean_inc.exit25, label %35

35:                                               ; preds = %34
  tail call void @lean_inc_ref_cold(ptr noundef nonnull %1) #8
  br label %lean_inc.exit25

lean_inc.exit25:                                  ; preds = %35, %34, %32, %lean_array_uget.exit
  %36 = tail call ptr @l_Std_DHashMap_Internal_AssocList_forInStep_go___at_Lean_Server_combineIdents_useConstRepresentatives___spec__22(i64 noundef %0, ptr noundef %1, ptr noundef %21, ptr noundef %.02246)
  %37 = getelementptr inbounds nuw i8, ptr %36, i64 8
  %38 = load ptr, ptr %37, align 8, !tbaa !4
  %39 = ptrtoint ptr %38 to i64
  %40 = and i64 %39, 1
  %.not42 = icmp eq i64 %40, 0
  br i1 %.not42, label %41, label %lean_inc.exit

41:                                               ; preds = %lean_inc.exit25
  %.val.i31 = load i32, ptr %38, align 4, !tbaa !8
  %42 = icmp sgt i32 %.val.i31, 0
  br i1 %42, label %43, label %45, !prof !11

43:                                               ; preds = %41
  %44 = add nuw i32 %.val.i31, 1
  store i32 %44, ptr %38, align 4, !tbaa !8
  br label %lean_inc.exit

45:                                               ; preds = %41
  %.not.i32 = icmp eq i32 %.val.i31, 0
  br i1 %.not.i32, label %lean_inc.exit, label %46

46:                                               ; preds = %45
  tail call void @lean_inc_ref_cold(ptr noundef nonnull %38) #8
  br label %lean_inc.exit

lean_inc.exit:                                    ; preds = %46, %45, %43, %lean_inc.exit25
  %47 = ptrtoint ptr %36 to i64
  %48 = and i64 %47, 1
  %.not43 = icmp eq i64 %48, 0
  br i1 %.not43, label %49, label %lean_dec.exit26

49:                                               ; preds = %lean_inc.exit
  %50 = load i32, ptr %36, align 4, !tbaa !8
  %51 = icmp sgt i32 %50, 1
  br i1 %51, label %52, label %54, !prof !11

52:                                               ; preds = %49
  %53 = add nsw i32 %50, -1
  store i32 %53, ptr %36, align 4, !tbaa !8
  br label %lean_dec.exit26

54:                                               ; preds = %49
  %.not.i27 = icmp eq i32 %50, 0
  br i1 %.not.i27, label %lean_dec.exit26, label %55

55:                                               ; preds = %54
  tail call void @lean_dec_ref_cold(ptr noundef nonnull %36) #8
  br label %lean_dec.exit26

lean_dec.exit26:                                  ; preds = %lean_inc.exit, %52, %54, %55
  %56 = add nuw i64 %.02047, 1
  %exitcond.not = icmp eq i64 %56, %5
  br i1 %exitcond.not, label %._crit_edge, label %19

57:                                               ; preds = %18, %17, %15, %._crit_edge
  ret ptr %.022.lcssa
}